; ModuleID = '32/1589.c'
source_filename = "32/1589.c"
target datalayout = "e-m:e-p270:32:32-p271:32:32-p272:64:64-i64:64-f80:128-n8:16:32:64-S128"
target triple = "x86_64-pc-linux-gnu"

@.str = private unnamed_addr constant [3 x i8] c"%d\00", align 1
@.str.1 = private unnamed_addr constant [3 x i8] c"%s\00", align 1
@szLine1 = common dso_local global [100 x i8] zeroinitializer, align 16
@szLine2 = common dso_local global [100 x i8] zeroinitializer, align 16
@an1 = common dso_local global [100 x i32] zeroinitializer, align 16
@an2 = common dso_local global [100 x i32] zeroinitializer, align 16
@.str.2 = private unnamed_addr constant [2 x i8] c"\0A\00", align 1

; Function Attrs: noinline nounwind uwtable
define dso_local void @main() #0 {
  %1 = alloca i32, align 4
  %2 = alloca i32, align 4
  %3 = alloca i32, align 4
  %4 = alloca i32, align 4
  %5 = alloca i32, align 4
  %6 = alloca i32, align 4
  %7 = alloca i32, align 4
  store i32 0, i32* %7, align 4
  %8 = call i32 (i8*, ...) @__isoc99_scanf(i8* getelementptr inbounds ([3 x i8], [3 x i8]* @.str, i64 0, i64 0), i32* %1)
  store i32 0, i32* %2, align 4
  br label %9

9:                                                ; preds = %120, %0
  %10 = load i32, i32* %2, align 4
  %11 = load i32, i32* %1, align 4
  %12 = icmp slt i32 %10, %11
  br i1 %12, label %13, label %123

13:                                               ; preds = %9
  %14 = call i32 (i8*, ...) @__isoc99_scanf(i8* getelementptr inbounds ([3 x i8], [3 x i8]* @.str.1, i64 0, i64 0), i8* getelementptr inbounds ([100 x i8], [100 x i8]* @szLine1, i64 0, i64 0))
  %15 = call i32 (i8*, ...) @__isoc99_scanf(i8* getelementptr inbounds ([3 x i8], [3 x i8]* @.str.1, i64 0, i64 0), i8* getelementptr inbounds ([100 x i8], [100 x i8]* @szLine2, i64 0, i64 0))
  call void @llvm.memset.p0i8.i64(i8* align 16 bitcast ([100 x i32]* @an1 to i8*), i8 0, i64 400, i1 false)
  call void @llvm.memset.p0i8.i64(i8* align 16 bitcast ([100 x i32]* @an2 to i8*), i8 0, i64 400, i1 false)
  %16 = call i64 @strlen(i8* getelementptr inbounds ([100 x i8], [100 x i8]* @szLine1, i64 0, i64 0)) #4
  %17 = trunc i64 %16 to i32
  store i32 %17, i32* %5, align 4
  store i32 0, i32* %4, align 4
  %18 = load i32, i32* %5, align 4
  %19 = sub nsw i32 %18, 1
  store i32 %19, i32* %3, align 4
  br label %20

20:                                               ; preds = %34, %13
  %21 = load i32, i32* %3, align 4
  %22 = icmp sge i32 %21, 0
  br i1 %22, label %23, label %37

23:                                               ; preds = %20
  %24 = load i32, i32* %3, align 4
  %25 = sext i32 %24 to i64
  %26 = getelementptr inbounds [100 x i8], [100 x i8]* @szLine1, i64 0, i64 %25
  %27 = load i8, i8* %26, align 1
  %28 = sext i8 %27 to i32
  %29 = sub nsw i32 %28, 48
  %30 = load i32, i32* %4, align 4
  %31 = add nsw i32 %30, 1
  store i32 %31, i32* %4, align 4
  %32 = sext i32 %30 to i64
  %33 = getelementptr inbounds [100 x i32], [100 x i32]* @an1, i64 0, i64 %32
  store i32 %29, i32* %33, align 4
  br label %34

34:                                               ; preds = %23
  %35 = load i32, i32* %3, align 4
  %36 = add nsw i32 %35, -1
  store i32 %36, i32* %3, align 4
  br label %20

37:                                               ; preds = %20
  %38 = call i64 @strlen(i8* getelementptr inbounds ([100 x i8], [100 x i8]* @szLine2, i64 0, i64 0)) #4
  %39 = trunc i64 %38 to i32
  store i32 %39, i32* %6, align 4
  store i32 0, i32* %4, align 4
  %40 = load i32, i32* %6, align 4
  %41 = sub nsw i32 %40, 1
  store i32 %41, i32* %3, align 4
  br label %42

42:                                               ; preds = %56, %37
  %43 = load i32, i32* %3, align 4
  %44 = icmp sge i32 %43, 0
  br i1 %44, label %45, label %59

45:                                               ; preds = %42
  %46 = load i32, i32* %3, align 4
  %47 = sext i32 %46 to i64
  %48 = getelementptr inbounds [100 x i8], [100 x i8]* @szLine2, i64 0, i64 %47
  %49 = load i8, i8* %48, align 1
  %50 = sext i8 %49 to i32
  %51 = sub nsw i32 %50, 48
  %52 = load i32, i32* %4, align 4
  %53 = add nsw i32 %52, 1
  store i32 %53, i32* %4, align 4
  %54 = sext i32 %52 to i64
  %55 = getelementptr inbounds [100 x i32], [100 x i32]* @an2, i64 0, i64 %54
  store i32 %51, i32* %55, align 4
  br label %56

56:                                               ; preds = %45
  %57 = load i32, i32* %3, align 4
  %58 = add nsw i32 %57, -1
  store i32 %58, i32* %3, align 4
  br label %42

59:                                               ; preds = %42
  %60 = load i32, i32* %5, align 4
  %61 = load i32, i32* %6, align 4
  %62 = icmp sgt i32 %60, %61
  br i1 %62, label %63, label %66

63:                                               ; preds = %59
  %64 = load i32, i32* %5, align 4
  %65 = sub nsw i32 %64, 1
  store i32 %65, i32* %7, align 4
  br label %68

66:                                               ; preds = %59
  %67 = load i32, i32* %6, align 4
  store i32 %67, i32* %7, align 4
  br label %68

68:                                               ; preds = %66, %63
  store i32 0, i32* %3, align 4
  br label %69

69:                                               ; preds = %101, %68
  %70 = load i32, i32* %3, align 4
  %71 = load i32, i32* %7, align 4
  %72 = icmp slt i32 %70, %71
  br i1 %72, label %73, label %104

73:                                               ; preds = %69
  %74 = load i32, i32* %3, align 4
  %75 = sext i32 %74 to i64
  %76 = getelementptr inbounds [100 x i32], [100 x i32]* @an2, i64 0, i64 %75
  %77 = load i32, i32* %76, align 4
  %78 = load i32, i32* %3, align 4
  %79 = sext i32 %78 to i64
  %80 = getelementptr inbounds [100 x i32], [100 x i32]* @an1, i64 0, i64 %79
  %81 = load i32, i32* %80, align 4
  %82 = sub nsw i32 %81, %77
  store i32 %82, i32* %80, align 4
  %83 = load i32, i32* %3, align 4
  %84 = sext i32 %83 to i64
  %85 = getelementptr inbounds [100 x i32], [100 x i32]* @an1, i64 0, i64 %84
  %86 = load i32, i32* %85, align 4
  %87 = icmp slt i32 %86, 0
  br i1 %87, label %88, label %100

88:                                               ; preds = %73
  %89 = load i32, i32* %3, align 4
  %90 = sext i32 %89 to i64
  %91 = getelementptr inbounds [100 x i32], [100 x i32]* @an1, i64 0, i64 %90
  %92 = load i32, i32* %91, align 4
  %93 = add nsw i32 %92, 10
  store i32 %93, i32* %91, align 4
  %94 = load i32, i32* %3, align 4
  %95 = add nsw i32 %94, 1
  %96 = sext i32 %95 to i64
  %97 = getelementptr inbounds [100 x i32], [100 x i32]* @an1, i64 0, i64 %96
  %98 = load i32, i32* %97, align 4
  %99 = add nsw i32 %98, -1
  store i32 %99, i32* %97, align 4
  br label %100

100:                                              ; preds = %88, %73
  br label %101

101:                                              ; preds = %100
  %102 = load i32, i32* %3, align 4
  %103 = add nsw i32 %102, 1
  store i32 %103, i32* %3, align 4
  br label %69

104:                                              ; preds = %69
  %105 = load i32, i32* %7, align 4
  store i32 %105, i32* %3, align 4
  br label %106

106:                                              ; preds = %115, %104
  %107 = load i32, i32* %3, align 4
  %108 = icmp sge i32 %107, 0
  br i1 %108, label %109, label %118

109:                                              ; preds = %106
  %110 = load i32, i32* %3, align 4
  %111 = sext i32 %110 to i64
  %112 = getelementptr inbounds [100 x i32], [100 x i32]* @an1, i64 0, i64 %111
  %113 = load i32, i32* %112, align 4
  %114 = call i32 (i8*, ...) @printf(i8* getelementptr inbounds ([3 x i8], [3 x i8]* @.str, i64 0, i64 0), i32 %113)
  br label %115

115:                                              ; preds = %109
  %116 = load i32, i32* %3, align 4
  %117 = add nsw i32 %116, -1
  store i32 %117, i32* %3, align 4
  br label %106

118:                                              ; preds = %106
  %119 = call i32 (i8*, ...) @printf(i8* getelementptr inbounds ([2 x i8], [2 x i8]* @.str.2, i64 0, i64 0))
  br label %120

120:                                              ; preds = %118
  %121 = load i32, i32* %2, align 4
  %122 = add nsw i32 %121, 1
  store i32 %122, i32* %2, align 4
  br label %9

123:                                              ; preds = %9
  ret void
}

declare dso_local i32 @__isoc99_scanf(i8*, ...) #1

; Function Attrs: argmemonly nounwind willreturn
declare void @llvm.memset.p0i8.i64(i8* nocapture writeonly, i8, i64, i1 immarg) #2

; Function Attrs: nounwind readonly
declare dso_local i64 @strlen(i8*) #3

declare dso_local i32 @printf(i8*, ...) #1


!llvm.module.flags = !{!0}
!llvm.ident = !{!1}

!0 = !{i32 1, !"wchar_size", i32 4}
!1 = !{!"clang version 10.0.0-4ubuntu1 "}
